(dp0
VServer
p1
Vcmsweb.cern.ch
p2
sVPort
p3
V
p4
sVRequestName
p5
V260722_134634:ffiore_crab_VBS_semilep_ZZ_EWK_2023LHEGS_v12
p6
sVvoRole
p7
VNULL
p8
sVvoGroup
p9
g4
sVinstance
p10
Vprod
p11
sVOriginalConfig
p12
ccopy_reg
_reconstructor
p13
(cWMCore.Configuration
Configuration
p14
c__builtin__
object
p15
Ntp16
Rp17
(dp18
V_internal_sections
p19
(lp20
VGeneral
p21
aVJobType
p22
aVData
p23
aVUser
p24
aVSite
p25
asg21
g13
(cWMCore.Configuration
ConfigSection
p26
g15
Ntp27
Rp28
(dp29
V_internal_documentation
p30
g4
sV_internal_name
p31
g21
sV_internal_settings
p32
c__builtin__
set
p33
((lp34
VrequestName
p35
aVworkArea
p36
atp37
Rp38
sV_internal_docstrings
p39
(dp40
sV_internal_children
p41
g33
((lp42
tp43
Rp44
sV_internal_parent_ref
p45
NsV_internal_skipChecks
p46
I00
sg36
VVBS_semilep_ZZ_EWK_2023LHEGS_v12
p47
sg35
g47
sbsg22
g13
(g26
g15
Ntp48
Rp49
(dp50
g30
g4
sg31
g22
sg32
g33
((lp51
VpluginName
p52
aVoutputFiles
p53
aVdisableAutomaticOutputCollection
p54
aVinputFiles
p55
aVeventsPerLumi
p56
aVscriptExe
p57
aVnumCores
p58
aVpsetName
p59
aVscriptArgs
p60
aVallowUndistributedCMSSW
p61
atp62
Rp63
sg39
(dp64
sg41
g33
((lp65
tp66
Rp67
sg45
Nsg46
I00
sg57
Vrunners/2023LHEGS_SMP/run_chain_Run3.sh
p68
sg59
Vdo_nothing_cfg.py
p69
sg52
VPrivateMC
p70
sg53
(lp71
VRunIII_2023LHEGS_NanoAODv9.root
p72
asg55
(lp73
VCMSSW_13_0_14.tar.gz
p74
aVmodifyCfg.py
p75
aVcopy_gridpack.py
p76
aVget_disk_files.py
p77
ag68
aVrunners/2023LHEGS_SMP/chain_step_0_LHEGS.sh
p78
aVrunners/2023LHEGS_SMP/chain_step_1_DRPreMix.sh
p79
aVrunners/2023LHEGS_SMP/chain_step_4_MiniAOD.sh
p80
aVrunners/2023LHEGS_SMP/chain_step_5_NanoAOD.sh
p81
aVRun3/Summer23/cfg_Run3Summer23DRPremix.py
p82
aVRun3/Summer23/cfg_Run3Summer23MiniAODv4.py
p83
aVRun3/Summer23/cfg_Run3Summer23NanoAODv12.py
p84
aVRun3/Summer23/cfg_Run3Summer23wmLHEGS.py
p85
asg54
I00
sg61
I01
sg58
I1
sg60
(lp86
VinputGridpack=/eos/user/f/ffiore/VBS/Gridpacks/ZZ/VBS_ZZ_semilep_el8_amd64_gcc10_CMSSW_12_4_8_tarball.tar.xz
p87
aVnEvents=20
p88
aVnThreads=1
p89
asg56
I20
sbsg23
g13
(g26
g15
Ntp90
Rp91
(dp92
g30
g4
sg31
g23
sg32
g33
((lp93
Vsplitting
p94
aVtotalUnits
p95
aVoutLFNDirBase
p96
aVpublication
p97
aVoutputDatasetTag
p98
aVoutputPrimaryDataset
p99
aVunitsPerJob
p100
atp101
Rp102
sg39
(dp103
sg41
g33
((lp104
tp105
Rp106
sg45
Nsg46
I00
sg100
I20
sg95
I40
sg94
VEventBased
p107
sg97
I00
sg99
g47
sg98
g47
sg96
V/store/user/ffiore/
p108
sbsg24
g13
(g26
g15
Ntp109
Rp110
(dp111
g30
g4
sg31
g24
sg32
g33
((lp112
tp113
Rp114
sg39
(dp115
sg41
g33
((lp116
tp117
Rp118
sg45
Nsg46
I00
sbsg25
g13
(g26
g15
Ntp119
Rp120
(dp121
g30
g4
sg31
g25
sg32
g33
((lp122
VstorageSite
p123
atp124
Rp125
sg39
(dp126
sg41
g33
((lp127
tp128
Rp129
sg45
Nsg46
I00
sg123
VT2_IT_Legnaro
p130
sbsbs.