ccopy_reg
_reconstructor
p0
(cFWCore.ParameterSet.Config
Process
p1
c__builtin__
object
p2
Ntp3
Rp4
(dp5
V_Process__name
p6
VMAIN
p7
sV_Process__filters
p8
(dp9
sV_Process__producers
p10
(dp11
sV_Process__switchproducers
p12
(dp13
sV_Process__source
p14
g0
(cFWCore.ParameterSet.Modules
Source
p15
g2
Ntp16
Rp17
(dp18
V_TypedParameterizable__type
p19
VEmptySource
p20
sV_Parameterizable__parameterNames
p21
(lp22
sV_isFrozen
p23
I00
sV_Parameterizable__validator
p24
NsV_isModified
p25
I00
sV_filename
p26
V/cvmfs/cms.cern.ch/el8_amd64_gcc11/cms/cmssw/CMSSW_13_0_14/src/FWCore/ParameterSet/python/Modules.py
p27
sV_lineNumber
p28
I195
sbsV_Process__looper
p29
NsV_Process__subProcesses
p30
(lp31
sV_Process__schedule
p32
NsV_Process__analyzers
p33
(dp34
sV_Process__outputmodules
p35
(dp36
sV_Process__paths
p37
g0
(cFWCore.ParameterSet.DictTypes
SortedKeysDict
p38
c__builtin__
dict
p39
(dp40
tp41
Rp42
(dp43
Vlist
p44
(lp45
sbsV_Process__endpaths
p46
g0
(g38
g39
(dp47
tp48
Rp49
(dp50
g44
(lp51
sbsV_Process__finalpaths
p52
g0
(g38
g39
(dp53
tp54
Rp55
(dp56
g44
(lp57
sbsV_Process__sequences
p58
(dp59
sV_Process__tasks
p60
(dp61
sV_Process__conditionaltasks
p62
(dp63
sV_Process__services
p64
(dp65
VMessageLogger
p66
g0
(cFWCore.ParameterSet.Modules
Service
p67
g2
Ntp68
Rp69
(dp70
g19
g66
sg21
(lp71
VsuppressWarning
p72
aVsuppressFwkInfo
p73
aVsuppressInfo
p74
aVsuppressDebug
p75
aVdebugModules
p76
aVcout
p77
aVdefault
p78
aVcerr
p79
aVfiles
p80
asg23
I00
sg24
g0
(cFWCore.ParameterSet.Types
_OptionalParameter
p81
g2
Ntp82
Rp83
(dp84
g23
I00
sV_ParameterTypeBase__isTracked
p85
I00
sg25
I00
sV_ProxyParameter__type
p86
g0
(cFWCore.ParameterSet.Types
_PSetTemplate
p87
g2
Ntp88
Rp89
(dp90
V_pset
p91
g0
(cFWCore.ParameterSet.Types
PSet
p92
g2
Ntp93
Rp94
(dp95
g23
I00
sg85
I01
sg25
I00
sg21
(lp96
VreportEvery
p97
aVlimit
p98
aVtimespan
p99
asg24
Nsg97
g0
(cFWCore.ParameterSet.Types
int32
p100
g2
Ntp101
Rp102
(dp103
g23
I00
sg85
I00
sg25
I00
sV_value
p104
I1
sbsg98
g0
(g81
g2
Ntp105
Rp106
(dp107
g23
I00
sg85
I00
sg25
I00
sg86
g100
sV_ProxyParameter__value
p108
Nsbsg99
g0
(g81
g2
Ntp109
Rp110
(dp111
g23
I00
sg85
I00
sg25
I00
sg86
g100
sg108
NsbsbsV_PSetTemplate__value
p112
Nsbsg108
Nsbsg72
g0
(cFWCore.ParameterSet.Types
vstring
p113
c__builtin__
list
p114
(lp115
tp116
Rp117
(dp118
g23
I00
sg85
I00
sg25
I00
sV_nPerLine
p119
I1
sbsg25
I00
sg73
g0
(g113
g114
(lp120
tp121
Rp122
(dp123
g23
I00
sg85
I00
sg25
I00
sg119
I1
sbsg74
g0
(g113
g114
(lp124
tp125
Rp126
(dp127
g23
I00
sg85
I00
sg25
I00
sg119
I1
sbsg75
g0
(g113
g114
(lp128
tp129
Rp130
(dp131
g23
I00
sg85
I00
sg25
I00
sg119
I1
sbsg76
g0
(g113
g114
(lp132
tp133
Rp134
(dp135
g23
I00
sg85
I00
sg25
I00
sg119
I1
sbsg77
g0
(g92
g2
Ntp136
Rp137
(dp138
g23
I00
sg85
I00
sg25
I00
sg21
(lp139
VnoLineBreaks
p140
aVnoTimeStamps
p141
aVlineLength
p142
aVthreshold
p143
aVstatisticsThreshold
p144
aVenableStatistics
p145
aVresetStatistics
p146
aVenable
p147
asg24
g83
sg140
g0
(g81
g2
Ntp148
Rp149
(dp150
g23
I00
sg85
I00
sg25
I00
sg86
cFWCore.ParameterSet.Types
bool
p151
sg108
Nsbsg141
g0
(g81
g2
Ntp152
Rp153
(dp154
g23
I00
sg85
I00
sg25
I00
sg86
g151
sg108
Nsbsg142
g0
(g81
g2
Ntp155
Rp156
(dp157
g23
I00
sg85
I00
sg25
I00
sg86
g100
sg108
Nsbsg143
g0
(g81
g2
Ntp158
Rp159
(dp160
g23
I00
sg85
I00
sg25
I00
sg86
cFWCore.ParameterSet.Types
string
p161
sg108
Nsbsg144
g0
(g81
g2
Ntp162
Rp163
(dp164
g23
I00
sg85
I00
sg25
I00
sg86
g161
sg108
Nsbsg145
g0
(g151
g2
Ntp165
Rp166
(dp167
g23
I00
sg85
I00
sg25
I00
sg104
I00
sbsg146
g0
(g151
g2
Ntp168
Rp169
(dp170
g23
I00
sg85
I00
sg25
I00
sg104
I00
sbsg147
g0
(g151
g2
Ntp171
Rp172
(dp173
g23
I00
sg85
I00
sg25
I00
sg104
I00
sbsbsg78
g0
(g92
g2
Ntp174
Rp175
(dp176
g23
I00
sg85
I00
sg25
I00
sg21
(lp177
g97
ag98
ag99
ag140
ag141
ag142
ag143
ag144
asg24
g83
sg97
g0
(g100
g2
Ntp178
Rp179
(dp180
g23
I00
sg85
I00
sg25
I00
sg104
I1
sbsg98
g0
(g81
g2
Ntp181
Rp182
(dp183
g23
I00
sg85
I00
sg25
I00
sg86
g100
sg108
Nsbsg99
g0
(g81
g2
Ntp184
Rp185
(dp186
g23
I00
sg85
I00
sg25
I00
sg86
g100
sg108
Nsbsg140
g0
(g151
g2
Ntp187
Rp188
(dp189
g23
I00
sg85
I00
sg25
I00
sg104
I00
sbsg141
g0
(g151
g2
Ntp190
Rp191
(dp192
g23
I00
sg85
I00
sg25
I00
sg104
I00
sbsg142
g0
(g100
g2
Ntp193
Rp194
(dp195
g23
I00
sg85
I00
sg25
I00
sg104
I80
sbsg143
g0
(g161
g2
Ntp196
Rp197
(dp198
g23
I00
sg85
I00
sg25
I00
sg104
VINFO
p199
sbsg144
g0
(g161
g2
Ntp200
Rp201
(dp202
g23
I00
sg85
I00
sg25
I00
sg104
g199
sbsbsg79
g0
(g92
g2
Ntp203
Rp204
(dp205
g23
I00
sg85
I00
sg25
I00
sg21
(lp206
g140
ag141
ag142
ag143
ag144
ag147
ag145
ag146
ag199
aVFwkReport
p207
ag78
aVRoot_NoDictionary
p208
aVFwkSummary
p209
asg24
g83
sg140
g0
(g81
g2
Ntp210
Rp211
(dp212
g23
I00
sg85
I00
sg25
I00
sg86
g151
sg108
Nsbsg141
g0
(g151
g2
Ntp213
Rp214
(dp215
g23
I00
sg85
I00
sg25
I00
sg104
I00
sbsg142
g0
(g81
g2
Ntp216
Rp217
(dp218
g23
I00
sg85
I00
sg25
I00
sg86
g100
sg108
Nsbsg143
g0
(g161
g2
Ntp219
Rp220
(dp221
g23
I00
sg85
I00
sg25
I00
sg104
g199
sbsg144
g0
(g161
g2
Ntp222
Rp223
(dp224
g23
I00
sg85
I00
sg25
I00
sg104
VWARNING
p225
sbsg147
g0
(g151
g2
Ntp226
Rp227
(dp228
g23
I00
sg85
I00
sg25
I00
sg104
I01
sbsg145
g0
(g151
g2
Ntp229
Rp230
(dp231
g23
I00
sg85
I00
sg25
I00
sg104
I00
sbsg146
g0
(g151
g2
Ntp232
Rp233
(dp234
g23
I00
sg85
I00
sg25
I00
sg104
I00
sbsg199
g0
(g92
g2
Ntp235
Rp236
(dp237
g23
I00
sg85
I00
sg25
I00
sg21
(lp238
g98
asg24
Nsg98
g0
(g100
g2
Ntp239
Rp240
(dp241
g23
I00
sg85
I00
sg25
I00
sg104
I0
sbsbsg207
g0
(g92
g2
Ntp242
Rp243
(dp244
g23
I00
sg85
I00
sg25
I00
sg21
(lp245
g97
ag98
asg24
Nsg97
g0
(g100
g2
Ntp246
Rp247
(dp248
g23
I00
sg85
I00
sg25
I00
sg104
I1
sbsg98
g0
(g100
g2
Ntp249
Rp250
(dp251
g23
I00
sg85
I00
sg25
I00
sg104
I10000000
sbsbsg78
g0
(g92
g2
Ntp252
Rp253
(dp254
g23
I00
sg85
I00
sg25
I00
sg21
(lp255
g98
asg24
Nsg98
g0
(g100
g2
Ntp256
Rp257
(dp258
g23
I00
sg85
I00
sg25
I00
sg104
I10000000
sbsbsg208
g0
(g92
g2
Ntp259
Rp260
(dp261
g23
I00
sg85
I00
sg25
I00
sg21
(lp262
g98
asg24
Nsg98
g0
(g100
g2
Ntp263
Rp264
(dp265
g23
I00
sg85
I00
sg25
I00
sg104
I0
sbsbsg209
g0
(g92
g2
Ntp266
Rp267
(dp268
g23
I00
sg85
I00
sg25
I00
sg21
(lp269
g97
ag98
asg24
Nsg97
g0
(g100
g2
Ntp270
Rp271
(dp272
g23
I00
sg85
I00
sg25
I00
sg104
I1
sbsg98
g0
(g100
g2
Ntp273
Rp274
(dp275
g23
I00
sg85
I00
sg25
I00
sg104
I10000000
sbsbsbsg80
g0
(g92
g2
Ntp276
Rp277
(dp278
g23
I00
sg85
I00
sg25
I00
sg21
(lp279
sg24
g0
(g81
g2
Ntp280
Rp281
(dp282
g23
I00
sg85
I00
sg25
I00
sg86
g0
(g87
g2
Ntp283
Rp284
(dp285
g91
g0
(g92
g2
Ntp286
Rp287
(dp288
g23
I00
sg85
I01
sg25
I00
sg21
(lp289
g140
ag141
ag142
ag143
ag144
ag145
ag146
aVfilename
p290
aVextension
p291
aVoutput
p292
asg24
g83
sg140
g0
(g81
g2
Ntp293
Rp294
(dp295
g23
I00
sg85
I00
sg25
I00
sg86
g151
sg108
Nsbsg141
g0
(g81
g2
Ntp296
Rp297
(dp298
g23
I00
sg85
I00
sg25
I00
sg86
g151
sg108
Nsbsg142
g0
(g81
g2
Ntp299
Rp300
(dp301
g23
I00
sg85
I00
sg25
I00
sg86
g100
sg108
Nsbsg143
g0
(g81
g2
Ntp302
Rp303
(dp304
g23
I00
sg85
I00
sg25
I00
sg86
g161
sg108
Nsbsg144
g0
(g81
g2
Ntp305
Rp306
(dp307
g23
I00
sg85
I00
sg25
I00
sg86
g161
sg108
Nsbsg145
g0
(g151
g2
Ntp308
Rp309
(dp310
g23
I00
sg85
I00
sg25
I00
sg104
I00
sbsg146
g0
(g151
g2
Ntp311
Rp312
(dp313
g23
I00
sg85
I00
sg25
I00
sg104
I00
sbsg290
g0
(g81
g2
Ntp314
Rp315
(dp316
g23
I00
sg85
I00
sg25
I00
sg86
g161
sg108
Nsbsg291
g0
(g81
g2
Ntp317
Rp318
(dp319
g23
I00
sg85
I00
sg25
I00
sg86
g161
sg108
Nsbsg292
g0
(g81
g2
Ntp320
Rp321
(dp322
g23
I00
sg85
I00
sg25
I00
sg86
g161
sg108
Nsbsbsg112
Nsbsg108
Nsbsbsg26
g27
sg28
I13
sV_inProcess
p323
I01
sbssV_Process__essources
p324
(dp325
sV_Process__esproducers
p326
(dp327
sV_Process__esprefers
p328
(dp329
sV_Process__aliases
p330
(dp331
sV_Process__psets
p332
(dp333
VmaxEvents
p334
g0
(g92
g2
Ntp335
Rp336
(dp337
g23
I00
sg85
I00
sg25
I01
sg21
(lp338
Vinput
p339
ag292
asg24
Nsg339
g0
(g81
g2
Ntp340
Rp341
(dp342
g23
I00
sg85
I00
sg25
I00
sg86
g100
sg108
Nsbsg292
g0
(g81
g2
Ntp343
Rp344
(dp345
g23
I00
sg85
I00
sg25
I00
sg86
g0
(cFWCore.ParameterSet.Types
_AllowedParameterTypes
p346
g2
Ntp347
Rp348
(dp349
V_AllowedParameterTypes__types
p350
(g100
g92
tp351
sV_AllowedParameterTypes__value
p352
NsV__name__
p353
Vallowed(cms.int32,cms.PSet)
p354
sbsg108
NsbsV_Labelable__label
p355
g334
sbsVmaxLuminosityBlocks
p356
g0
(g92
g2
Ntp357
Rp358
(dp359
g23
I00
sg85
I00
sg25
I00
sg21
(lp360
g339
asg24
Nsg339
g0
(g100
g2
Ntp361
Rp362
(dp363
g23
I00
sg85
I00
sg25
I00
sg104
I-1
sbsg355
g356
sbsVoptions
p364
g0
(g92
g2
Ntp365
Rp366
(dp367
g23
I00
sg85
I00
sg25
I01
sg21
(lp368
VnumberOfThreads
p369
aVnumberOfStreams
p370
aVnumberOfConcurrentRuns
p371
aVnumberOfConcurrentLuminosityBlocks
p372
aVeventSetup
p373
aVaccelerators
p374
aVwantSummary
p375
aVfileMode
p376
aVforceEventSetupCacheClearOnNewRun
p377
aVthrowIfIllegalParameter
p378
aVprintDependencies
p379
aVdeleteNonConsumedUnscheduledModules
p380
aVsizeOfStackForThreadsInKB
p381
aVRethrow
p382
aVSkipEvent
p383
aVFailPath
p384
aVIgnoreCompletely
p385
aVcanDeleteEarly
p386
aVholdsReferencesToDeleteEarly
p387
aVmodulesToIgnoreForDeleteEarly
p388
aVdumpOptions
p389
aVallowUnscheduled
p390
aVemptyRunLumiMode
p391
aVmakeTriggerResults
p392
asg24
Nsg369
g0
(cFWCore.ParameterSet.Types
uint32
p393
g2
Ntp394
Rp395
(dp396
g23
I00
sg85
I00
sg25
I00
sg104
I1
sbsg370
g0
(g393
g2
Ntp397
Rp398
(dp399
g23
I00
sg85
I00
sg25
I00
sg104
I0
sbsg371
g0
(g393
g2
Ntp400
Rp401
(dp402
g23
I00
sg85
I00
sg25
I00
sg104
I1
sbsg372
g0
(g393
g2
Ntp403
Rp404
(dp405
g23
I00
sg85
I00
sg25
I00
sg104
I0
sbsg373
g0
(g92
g2
Ntp406
Rp407
(dp408
g23
I00
sg85
I00
sg25
I00
sg21
(lp409
VnumberOfConcurrentIOVs
p410
aVforceNumberOfConcurrentIOVs
p411
asg24
Nsg410
g0
(g393
g2
Ntp412
Rp413
(dp414
g23
I00
sg85
I00
sg25
I00
sg104
I0
sbsg411
g0
(g92
g2
Ntp415
Rp416
(dp417
g23
I00
sg85
I00
sg25
I00
sg21
(lp418
sg24
g0
(cFWCore.ParameterSet.Types
_RequiredParameter
p419
g2
Ntp420
Rp421
(dp422
g23
I00
sg85
I00
sg25
I00
sg86
g393
sg108
Nsbsbsbsg374
g0
(g113
g114
(lp423
V*
p424
atp425
Rp426
(dp427
g23
I00
sg85
I00
sg25
I00
sg119
I1
sbsg375
g0
(g151
g2
Ntp428
Rp429
(dp430
g23
I00
sg85
I00
sg25
I00
sg104
I00
sbsg376
g0
(g161
g2
Ntp431
Rp432
(dp433
g23
I00
sg85
I00
sg25
I00
sg104
VFULLMERGE
p434
sbsg377
g0
(g151
g2
Ntp435
Rp436
(dp437
g23
I00
sg85
I00
sg25
I00
sg104
I00
sbsg378
g0
(g151
g2
Ntp438
Rp439
(dp440
g23
I00
sg85
I00
sg25
I00
sg104
I01
sbsg379
g0
(g151
g2
Ntp441
Rp442
(dp443
g23
I00
sg85
I00
sg25
I00
sg104
I00
sbsg380
g0
(g151
g2
Ntp444
Rp445
(dp446
g23
I00
sg85
I00
sg25
I00
sg104
I01
sbsg381
g0
(g81
g2
Ntp447
Rp448
(dp449
g23
I00
sg85
I00
sg25
I00
sg86
g393
sg108
Nsbsg382
g0
(g113
g114
(lp450
tp451
Rp452
(dp453
g23
I00
sg85
I00
sg25
I00
sg119
I1
sbsg383
g0
(g113
g114
(lp454
tp455
Rp456
(dp457
g23
I00
sg85
I00
sg25
I00
sg119
I1
sbsg384
g0
(g113
g114
(lp458
tp459
Rp460
(dp461
g23
I00
sg85
I00
sg25
I00
sg119
I1
sbsg385
g0
(g113
g114
(lp462
tp463
Rp464
(dp465
g23
I00
sg85
I00
sg25
I00
sg119
I1
sbsg386
g0
(g113
g114
(lp466
tp467
Rp468
(dp469
g23
I00
sg85
I00
sg25
I00
sg119
I1
sbsg387
g0
(cFWCore.ParameterSet.Types
VPSet
p470
g114
(lp471
tp472
Rp473
(dp474
g23
I00
sg85
I00
sg25
I00
sg119
I1
sbsg388
g0
(g113
g114
(lp475
tp476
Rp477
(dp478
g23
I00
sg85
I00
sg25
I00
sg119
I1
sbsg389
g0
(g151
g2
Ntp479
Rp480
(dp481
g23
I00
sg85
I00
sg25
I00
sg104
I00
sbsg390
g0
(cFWCore.ParameterSet.Types
_ObsoleteParameter
p482
g2
Ntp483
Rp484
(dp485
g23
I00
sg85
I00
sg25
I00
sg86
g151
sg108
Nsbsg391
g0
(g482
g2
Ntp486
Rp487
(dp488
g23
I00
sg85
I00
sg25
I00
sg86
g161
sg108
Nsbsg392
g0
(g482
g2
Ntp489
Rp490
(dp491
g23
I00
sg85
I00
sg25
I00
sg86
g151
sg108
Nsbsg355
g364
sbssV_Process__vpsets
p492
(dp493
sV_cloneToObjectDict
p494
(dp495
L140641843825680L
g0
(g92
g2
Ntp496
Rp497
(dp498
g23
I00
sg85
I00
sg25
I01
sg21
(lp499
g369
ag370
ag371
ag372
ag373
ag374
ag375
ag376
ag377
ag378
ag379
ag380
ag381
ag382
ag383
ag384
ag385
ag386
ag387
ag388
ag389
ag390
ag391
ag392
asg24
Nsg369
g0
(g393
g2
Ntp500
Rp501
(dp502
g23
I00
sg85
I00
sg25
I00
sg104
I1
sbsg370
g0
(g393
g2
Ntp503
Rp504
(dp505
g23
I00
sg85
I00
sg25
I00
sg104
I0
sbsg371
g0
(g393
g2
Ntp506
Rp507
(dp508
g23
I00
sg85
I00
sg25
I00
sg104
I1
sbsg372
g0
(g393
g2
Ntp509
Rp510
(dp511
g23
I00
sg85
I00
sg25
I00
sg104
I0
sbsg373
g0
(g92
g2
Ntp512
Rp513
(dp514
g23
I00
sg85
I00
sg25
I00
sg21
(lp515
g410
ag411
asg24
Nsg410
g0
(g393
g2
Ntp516
Rp517
(dp518
g23
I00
sg85
I00
sg25
I00
sg104
I0
sbsg411
g0
(g92
g2
Ntp519
Rp520
(dp521
g23
I00
sg85
I00
sg25
I00
sg21
(lp522
sg24
g0
(g419
g2
Ntp523
Rp524
(dp525
g23
I00
sg85
I00
sg25
I00
sg86
g393
sg108
Nsbsbsbsg374
g0
(g113
g114
(lp526
g424
atp527
Rp528
(dp529
g23
I00
sg85
I00
sg25
I00
sg119
I1
sbsg375
g0
(g151
g2
Ntp530
Rp531
(dp532
g23
I00
sg85
I00
sg25
I00
sg104
I00
sbsg376
g0
(g161
g2
Ntp533
Rp534
(dp535
g23
I00
sg85
I00
sg25
I00
sg104
g434
sbsg377
g0
(g151
g2
Ntp536
Rp537
(dp538
g23
I00
sg85
I00
sg25
I00
sg104
I00
sbsg378
g0
(g151
g2
Ntp539
Rp540
(dp541
g23
I00
sg85
I00
sg25
I00
sg104
I01
sbsg379
g0
(g151
g2
Ntp542
Rp543
(dp544
g23
I00
sg85
I00
sg25
I00
sg104
I00
sbsg380
g0
(g151
g2
Ntp545
Rp546
(dp547
g23
I00
sg85
I00
sg25
I00
sg104
I01
sbsg381
g0
(g81
g2
Ntp548
Rp549
(dp550
g23
I00
sg85
I00
sg25
I00
sg86
g393
sg108
Nsbsg382
g0
(g113
g114
(lp551
tp552
Rp553
(dp554
g23
I00
sg85
I00
sg25
I00
sg119
I1
sbsg383
g0
(g113
g114
(lp555
tp556
Rp557
(dp558
g23
I00
sg85
I00
sg25
I00
sg119
I1
sbsg384
g0
(g113
g114
(lp559
tp560
Rp561
(dp562
g23
I00
sg85
I00
sg25
I00
sg119
I1
sbsg385
g0
(g113
g114
(lp563
tp564
Rp565
(dp566
g23
I00
sg85
I00
sg25
I00
sg119
I1
sbsg386
g0
(g113
g114
(lp567
tp568
Rp569
(dp570
g23
I00
sg85
I00
sg25
I00
sg119
I1
sbsg387
g0
(g470
g114
(lp571
tp572
Rp573
(dp574
g23
I00
sg85
I00
sg25
I00
sg119
I1
sbsg388
g0
(g113
g114
(lp575
tp576
Rp577
(dp578
g23
I00
sg85
I00
sg25
I00
sg119
I1
sbsg389
g0
(g151
g2
Ntp579
Rp580
(dp581
g23
I00
sg85
I00
sg25
I00
sg104
I00
sbsg390
g0
(g482
g2
Ntp582
Rp583
(dp584
g23
I00
sg85
I00
sg25
I00
sg86
g151
sg108
Nsbsg391
g0
(g482
g2
Ntp585
Rp586
(dp587
g23
I00
sg85
I00
sg25
I00
sg86
g161
sg108
Nsbsg392
g0
(g482
g2
Ntp588
Rp589
(dp590
g23
I00
sg85
I00
sg25
I00
sg86
g151
sg108
Nsbsg355
NsbsL140641843551968L
g336
sL140641843550144L
g358
sL140641843548752L
g366
ssV_Process__InExtendCall
p591
I00
sV_Process__partialschedules
p592
(dp593
sV_Process__isStrict
p594
I00
sV_Process__modifiers
p595
(tsV_Process__accelerators
p596
(dp597
sg334
g336
sg356
g358
sg66
g69
sVsource
p598
g17
sg20
g17
sg364
g366
sb.